#include <math.h>
#include <stdio.h>
#include <stdlib.h>
#include <string.h>

int main(){
	int n,i;
	double f;
	scanf("%d",&n);
	f=pow(2.0,(double)n);
	printf("%.0lf",f);
	return 0;
}